00023774 T Cli_ABRead
00023788 T Cli_ABWrite
00023b90 T Cli_AsABRead
00023ba4 T Cli_AsABWrite
00023be0 T Cli_AsCTRead
00023bf4 T Cli_AsCTWrite
00023c94 T Cli_AsCompress
00023c80 T Cli_AsCopyRamToRom
00023cbc T Cli_AsDBFill
00023ca8 T Cli_AsDBGet
00023b18 T Cli_AsDBRead
00023b2c T Cli_AsDBWrite
00023c6c T Cli_AsDownload
00023b68 T Cli_AsEBRead
00023b7c T Cli_AsEBWrite
00023c58 T Cli_AsFullUpload
00023c08 T Cli_AsListBlocksOfType
00023b40 T Cli_AsMBRead
00023b54 T Cli_AsMBWrite
00023ad8 T Cli_AsReadArea
00023c1c T Cli_AsReadSZL
00023c30 T Cli_AsReadSZLList
00023bb8 T Cli_AsTMRead
00023bcc T Cli_AsTMWrite
00023c44 T Cli_AsUpload
00023af8 T Cli_AsWriteArea
000237c4 T Cli_CTRead
000237d8 T Cli_CTWrite
00023cd0 T Cli_CheckAsCompletion
000239f4 T Cli_ClearSessionPassword
000239a4 T Cli_Compress
00023630 T Cli_Connect
0002361c T Cli_ConnectTo
00023990 T Cli_CopyRamToRom
00023584 T Cli_Create
000238a0 T Cli_DBFill
0002388c T Cli_DBGet
000236fc T Cli_DBRead
00023710 T Cli_DBWrite
00023878 T Cli_Delete
000235b0 T Cli_Destroy
00023644 T Cli_Disconnect
00023864 T Cli_Download
0002374c T Cli_EBRead
00023760 T Cli_EBWrite
00023a8c T Cli_ErrorText
00023850 T Cli_FullUpload
00023800 T Cli_GetAgBlockInfo
00023abc T Cli_GetConnected
00023918 T Cli_GetCpInfo
00023904 T Cli_GetCpuInfo
00023a1c T Cli_GetExecTime
00023a3c T Cli_GetLastError
000238f0 T Cli_GetOrderCode
00023658 T Cli_GetParam
00023a5c T Cli_GetPduLength
00023814 T Cli_GetPgBlockInfo
000238b4 T Cli_GetPlcDateTime
000239b8 T Cli_GetPlcStatus
000239cc T Cli_GetProtection
00023a08 T Cli_IsoExchangeBuffer
000237ec T Cli_ListBlocks
00023828 T Cli_ListBlocksOfType
00023724 T Cli_MBRead
00023738 T Cli_MBWrite
00023968 T Cli_PlcColdStart
00023954 T Cli_PlcHotStart
0002397c T Cli_PlcStop
00023694 T Cli_ReadArea
000236d4 T Cli_ReadMultiVars
0002392c T Cli_ReadSZL
00023940 T Cli_ReadSZLList
00023680 T Cli_SetAsCallback
000235dc T Cli_SetConnectionParams
000235fc T Cli_SetConnectionType
0002366c T Cli_SetParam
000238c8 T Cli_SetPlcDateTime
000238dc T Cli_SetPlcSystemDateTime
000239e0 T Cli_SetSessionPassword
0002379c T Cli_TMRead
000237b0 T Cli_TMWrite
0002383c T Cli_Upload
00023cf4 T Cli_WaitAsCompletion
000236b4 T Cli_WriteArea
000236e8 T Cli_WriteMultiVars
000240e8 T Par_AsBSend
00024148 T Par_BRecv
000240d4 T Par_BSend
0002415c T Par_CheckAsBRecvCompletion
000240fc T Par_CheckAsBSendCompletion
00024004 T Par_Create
0002403c T Par_Destroy
00024280 T Par_ErrorText
00024234 T Par_GetLastError
00024068 T Par_GetParam
000241d4 T Par_GetStats
00024254 T Par_GetStatus
000241a4 T Par_GetTimes
0002407c T Par_SetParam
00024190 T Par_SetRecvCallback
00024134 T Par_SetSendCallback
000240ac T Par_Start
00024090 T Par_StartTo
000240c0 T Par_Stop
00024120 T Par_WaitAsBSendCompletion
00032f84 D SZLNotAvail
00032f7c D SZLSysState
00032e90 D SZL_ID_0000_IDX_XXXX
00032cb8 D SZL_ID_0002_IDX_XXXX
00032c3c D SZL_ID_0011_IDX_XXXX
00032c00 D SZL_ID_0012_IDX_XXXX
00032b40 D SZL_ID_0013_IDX_XXXX
00032aec D SZL_ID_0014_IDX_XXXX
00032aac D SZL_ID_0015_IDX_XXXX
000322b4 D SZL_ID_0017_IDX_XXXX
0003228c D SZL_ID_0018_IDX_XXXX
00032a78 D SZL_ID_0019_IDX_XXXX
00032250 D SZL_ID_001A_IDX_XXXX
000321c0 D SZL_ID_001B_IDX_XXXX
0003290c D SZL_ID_001C_IDX_XXXX
00032150 D SZL_ID_0021_IDX_XXXX
00032050 D SZL_ID_0023_IDX_XXXX
00031fe8 D SZL_ID_0024_IDX_XXXX
000328d8 D SZL_ID_0025_IDX_XXXX
000328f4 D SZL_ID_0036_IDX_XXXX
00032890 D SZL_ID_0037_IDX_XXXX
00031f58 D SZL_ID_0038_IDX_XXXX
00031f40 D SZL_ID_003A_IDX_XXXX
0003285c D SZL_ID_0074_IDX_XXXX
00031ef0 D SZL_ID_0092_IDX_0000
00031da8 D SZL_ID_0094_IDX_0000
0003256c D SZL_ID_0095_IDX_XXXX
0003248c D SZL_ID_00A0_IDX_XXXX
00031d44 D SZL_ID_0111_IDX_0001
00031d1c D SZL_ID_0111_IDX_0006
00031cf4 D SZL_ID_0111_IDX_0007
00031cc0 D SZL_ID_0112_IDX_0000
00031cb0 D SZL_ID_0112_IDX_0100
00031ca4 D SZL_ID_0112_IDX_0200
00031c98 D SZL_ID_0112_IDX_0400
00031c38 D SZL_ID_0113_IDX_0001
00031c20 D SZL_ID_0115_IDX_0800
00030068 D SZL_ID_0117_IDX_0000
00030058 D SZL_ID_0117_IDX_0001
00030048 D SZL_ID_0117_IDX_0002
00030038 D SZL_ID_0117_IDX_0003
00030028 D SZL_ID_0117_IDX_0004
00030018 D SZL_ID_0118_IDX_0000
00030008 D SZL_ID_0118_IDX_0001
0002fff8 D SZL_ID_0118_IDX_0002
0002ffe8 D SZL_ID_0118_IDX_0003
00031bf0 D SZL_ID_011C_IDX_0001
00031bc0 D SZL_ID_011C_IDX_0002
00031b90 D SZL_ID_011C_IDX_0003
00031b60 D SZL_ID_011C_IDX_0004
00031b30 D SZL_ID_011C_IDX_0005
00031b00 D SZL_ID_011C_IDX_0007
00031ad0 D SZL_ID_011C_IDX_0008
00031aa0 D SZL_ID_011C_IDX_0009
00031a70 D SZL_ID_011C_IDX_000A
00031a40 D SZL_ID_011C_IDX_000B
00031fc8 D SZL_ID_0124_IDX_XXXX
00031940 D SZL_ID_0125_IDX_0000
00031930 D SZL_ID_0125_IDX_0001
0002ffb4 D SZL_ID_0131_IDX_0001
0002ff80 D SZL_ID_0131_IDX_0002
0002ff4c D SZL_ID_0131_IDX_0003
0002ff18 D SZL_ID_0131_IDX_0004
0002fee4 D SZL_ID_0131_IDX_0005
0002feb0 D SZL_ID_0131_IDX_0006
0002fe7c D SZL_ID_0131_IDX_0007
0002fe48 D SZL_ID_0131_IDX_0008
0002fe14 D SZL_ID_0131_IDX_0009
000318ec D SZL_ID_0132_IDX_0001
000318b8 D SZL_ID_0132_IDX_0002
00031884 D SZL_ID_0132_IDX_0003
00031850 D SZL_ID_0132_IDX_0004
0003181c D SZL_ID_0132_IDX_0005
000317e8 D SZL_ID_0132_IDX_0006
000317b4 D SZL_ID_0132_IDX_0007
00031780 D SZL_ID_0132_IDX_0008
0003174c D SZL_ID_0132_IDX_0009
00031718 D SZL_ID_0132_IDX_000A
000316e4 D SZL_ID_0132_IDX_000B
000316b0 D SZL_ID_0132_IDX_000C
0003160c D SZL_ID_0137_IDX_07FE
000315fc D SZL_ID_0174_IDX_0001
000315ec D SZL_ID_0174_IDX_0004
000315dc D SZL_ID_0174_IDX_0005
000315cc D SZL_ID_0174_IDX_0006
000315bc D SZL_ID_0174_IDX_000B
000315ac D SZL_ID_0174_IDX_000C
0003149c D SZL_ID_0194_IDX_0064
00031380 D SZL_ID_01A0_IDX_0000
00031360 D SZL_ID_01A0_IDX_0001
0003132c D SZL_ID_01A0_IDX_0002
000312e4 D SZL_ID_01A0_IDX_0003
00031288 D SZL_ID_01A0_IDX_0004
00031218 D SZL_ID_01A0_IDX_0005
00031194 D SZL_ID_01A0_IDX_0006
000310fc D SZL_ID_01A0_IDX_0007
00031050 D SZL_ID_01A0_IDX_0008
00030f90 D SZL_ID_01A0_IDX_0009
00030ebc D SZL_ID_01A0_IDX_000A
00030dd4 D SZL_ID_01A0_IDX_000B
00030cd8 D SZL_ID_01A0_IDX_000C
00030bc8 D SZL_ID_01A0_IDX_000D
00030aa4 D SZL_ID_01A0_IDX_000E
0003096c D SZL_ID_01A0_IDX_000F
00030820 D SZL_ID_01A0_IDX_0010
000306c0 D SZL_ID_01A0_IDX_0011
0003054c D SZL_ID_01A0_IDX_0012
000303c4 D SZL_ID_01A0_IDX_0013
00030228 D SZL_ID_01A0_IDX_0014
00030078 D SZL_ID_01A0_IDX_0015
00031a18 D SZL_ID_0222_IDX_0001
000319f0 D SZL_ID_0222_IDX_000A
000319c8 D SZL_ID_0222_IDX_0014
000319a0 D SZL_ID_0222_IDX_0028
00031978 D SZL_ID_0222_IDX_0050
00031950 D SZL_ID_0222_IDX_0064
00031920 D SZL_ID_0225_IDX_0001
0003167c D SZL_ID_0232_IDX_0001
00031648 D SZL_ID_0232_IDX_0004
00031ed4 D SZL_ID_0292_IDX_0000
000326bc D SZL_ID_0294_IDX_XXXX
00031fa8 D SZL_ID_0424_IDX_XXXX
00032804 D SZL_ID_0591_IDX_XXXX
00031eb8 D SZL_ID_0692_IDX_0000
0003138c D SZL_ID_0694_IDX_0064
000325ac D SZL_ID_0794_IDX_XXXX
00032140 D SZL_ID_0A21_IDX_XXXX
000327d8 D SZL_ID_0A91_IDX_XXXX
0002fdf8 D SZL_ID_0C91_IDX_07FE
00031f0c D SZL_ID_0D91_IDX_0000
00031d6c D SZL_ID_0D97_IDX_0000
00032e84 D SZL_ID_0F00_IDX_XXXX
00031ce8 D SZL_ID_0F11_IDX_0001
00031cdc D SZL_ID_0F11_IDX_0006
00031cd0 D SZL_ID_0F11_IDX_0007
00031c8c D SZL_ID_0F12_IDX_0000
00031c80 D SZL_ID_0F12_IDX_0100
00031c74 D SZL_ID_0F12_IDX_0200
00031c68 D SZL_ID_0F12_IDX_0400
00032aa0 D SZL_ID_0F14_IDX_XXXX
000322a8 D SZL_ID_0F17_IDX_XXXX
00032280 D SZL_ID_0F18_IDX_XXXX
00032a6c D SZL_ID_0F19_IDX_XXXX
00032244 D SZL_ID_0F1A_IDX_XXXX
000321b4 D SZL_ID_0F1B_IDX_XXXX
00032900 D SZL_ID_0F1C_IDX_XXXX
00032134 D SZL_ID_0F21_IDX_XXXX
00032044 D SZL_ID_0F23_IDX_XXXX
000328cc D SZL_ID_0F25_IDX_XXXX
000328e8 D SZL_ID_0F36_IDX_XXXX
00032884 D SZL_ID_0F37_IDX_XXXX
00031f4c D SZL_ID_0F38_IDX_XXXX
00031f34 D SZL_ID_0F3A_IDX_XXXX
00032850 D SZL_ID_0F74_IDX_XXXX
000327cc D SZL_ID_0F92_IDX_XXXX
000325a0 D SZL_ID_0F94_IDX_XXXX
00032560 D SZL_ID_0F95_IDX_XXXX
00031f28 D SZL_ID_0F9A_IDX_XXXX
00032480 D SZL_ID_0FA0_IDX_XXXX
00023f18 T Srv_ClearEvents
00023d08 T Srv_Create
00023d34 T Srv_Destroy
00023e98 T Srv_ErrorText
00023ec8 T Srv_EventText
00023f38 T Srv_GetMask
00023d60 T Srv_GetParam
00023e30 T Srv_GetStatus
00023e08 T Srv_LockArea
00023ee8 T Srv_PickEvent
00023dd0 T Srv_RegisterArea
00023e7c T Srv_SetCpuStatus
00023fc8 T Srv_SetEventsCallback
00023f84 T Srv_SetMask
00023d74 T Srv_SetParam
00023ff0 T Srv_SetRWAreaCallback
00023fdc T Srv_SetReadEventsCallback
00023d9c T Srv_Start
00023d88 T Srv_StartTo
00023db0 T Srv_Stop
00023e1c T Srv_UnlockArea
00023df4 T Srv_UnregisterArea
         w _ITM_deregisterTMCloneTable
         w _ITM_registerTMCloneTable
         w _Jv_RegisterClasses
0001b8d0 T _Z10ErrCliTextiPci
0001bad8 T _Z10ErrParTextiPci
0001b9d4 T _Z10ErrSrvTextiPci
0001cc7c T _Z10EvtSrvTextR9TSrvEventPci
0001bbdc T _Z10SenderTextR9TSrvEventPc
0000f428 T _Z10SysGetTickv
00010478 T _Z10ThreadProcPv
0001c824 T _Z10UploadTextR9TSrvEventPc
0001c558 T _Z11ControlTexttPc
0001a1e8 T _Z11IntToStringiPc
0001a084 T _Z11NumToStringiiiPc
0001c734 T _Z11ReadSZLTextR9TSrvEventPc
0001c844 T _Z12DownloadTextR9TSrvEventPc
0001cbf0 T _Z12SecurityTextR9TSrvEventPc
0001c864 T _Z12StrBlockTypetPc
0001a1f8 T _Z12TimeToStringlPc
0001c320 T _Z12TxtStartSizeR9TSrvEventPc
0001ca04 T _Z13BlockInfoTextR9TSrvEventPc
0001c3b4 T _Z13TxtDataResultR9TSrvEventPc
0000e1a4 T _Z15Msg_CloseSocketi
0000e1a8 T _Z15Msg_GetSockAddri
0000f3c8 T _Z15RawSocketsCheckv
0001a244 T _Z17IpAddressToStringiPc
0001bcc4 T _Z18TcpServerEventTextR9TSrvEventPc
00012760 T _Z24ServersManager_GetServerjRP17TConnectionServer
000129a4 T _Z28ServersManager_RemovePartnerP17TConnectionServerP13TSnap7Partner
0001bef4 T _Z7PDUTextR9TSrvEventPc
0001c17c T _Z7TxtAreaR9TSrvEventPc
0000df2c T _Z7libdonev
0000df80 T _Z7libinitv
0000f468 T _Z8SysSleepj
0001ac5c T _Z9CliTextOfiPc
0001c6e4 T _Z9ClockTexttPc
0000f4ac T _Z9DeltaTimeRj
0001a9f8 T _Z9IsoTextOfiPc
0001b588 T _Z9ParTextOfiPc
0001b368 T _Z9SrvTextOfiPc
0001a264 T _Z9TcpTextOfiPc
0000ea8c T _ZN10TMsgSocket10ForceCloseEv
0000edb4 T _ZN10TMsgSocket10PeekPacketEPvi
0000ed18 T _ZN10TMsgSocket10RecvPacketEPvi
0000e7e8 T _ZN10TMsgSocket10SckConnectEv
0000ebec T _ZN10TMsgSocket10SendPacketEPvi
0000ec64 T _ZN10TMsgSocket11PacketReadyEi
0000e72c T _ZN10TMsgSocket11WaitForDataEii
0000e34c T _ZN10TMsgSocket11WaitingDataEv
0000e6e4 T _ZN10TMsgSocket12CreateSocketEv
0000e698 T _ZN10TMsgSocket13DestroySocketEv
0000ea74 T _ZN10TMsgSocket13SckDisconnectEv
0000e3b4 T _ZN10TMsgSocket16SetSocketOptionsEv
0000e330 T _ZN10TMsgSocket18GetLastSocketErrorEv
0000f34c T _ZN10TMsgSocket4PingE11sockaddr_in
0000f3b8 T _ZN10TMsgSocket4PingEPc
0000e668 T _ZN10TMsgSocket5PurgeEv
0000e238 T _ZN10TMsgSocket6GetSinE11sockaddr_inPcRt
0000e1d8 T _ZN10TMsgSocket6SetSinER11sockaddr_inPct
0000e570 T _ZN10TMsgSocket7CanReadEi
0000e11c T _ZN10TMsgSocket7ExecuteEv
0000ec80 T _ZN10TMsgSocket7ReceiveEPviRi
0000eac4 T _ZN10TMsgSocket7SckBindEv
0000e478 T _ZN10TMsgSocket8CanWriteEi
0000e280 T _ZN10TMsgSocket8GetLocalEv
0000e2d8 T _ZN10TMsgSocket9GetRemoteEv
0000e340 T _ZN10TMsgSocket9GotSocketEv
0000eba4 T _ZN10TMsgSocket9SckAcceptEv
0000eb74 T _ZN10TMsgSocket9SckListenEv
0000e434 T _ZN10TMsgSocket9SetSocketEi
0000e390 T _ZN10TMsgSocket9SockCheckEi
0000f18c T _ZN10TMsgSocketC1Ev
0000f18c T _ZN10TMsgSocketC2Ev
0000f2ac T _ZN10TMsgSocketD0Ev
0000f25c T _ZN10TMsgSocketD1Ev
0000f25c T _ZN10TMsgSocketD2Ev
00014ae4 T _ZN10TSnap7Peer11GetNextWordEv
00014c90 T _ZN10TSnap7Peer11PeerConnectEv
00014c74 T _ZN10TSnap7Peer14PeerDisconnectEv
00014b24 T _ZN10TSnap7Peer18NegotiatePDULengthEv
00014a7c T _ZN10TSnap7Peer8ClrErrorEv
00014aa0 T _ZN10TSnap7Peer8SetErrorEi
000149f8 T _ZN10TSnap7PeerC1Ev
000149f8 T _ZN10TSnap7PeerC2Ev
000149dc T _ZN10TSnap7PeerD0Ev
00014998 T _ZN10TSnap7PeerD1Ev
00014998 T _ZN10TSnap7PeerD2Ev
0001052c T _ZN11TSnapThread12ThreadCreateEv
000105e4 T _ZN11TSnapThread4JoinEv
000105b0 T _ZN11TSnapThread4KillEv
00010580 T _ZN11TSnapThread5StartEv
00010734 W _ZN11TSnapThread7ExecuteEv
00010690 T _ZN11TSnapThread7WaitForEy
000105a4 T _ZN11TSnapThread9TerminateEv
000104f4 T _ZN11TSnapThreadC1Ev
000104f4 T _ZN11TSnapThreadC2Ev
00010674 T _ZN11TSnapThreadD0Ev
00010618 T _ZN11TSnapThreadD1Ev
00010618 T _ZN11TSnapThreadD2Ev
0000f3f8 T _ZN12SocketsLayerC1Ev
0000f3f8 T _ZN12SocketsLayerC2Ev
0000e124 T _ZN12SocketsLayerD1Ev
0000e124 T _ZN12SocketsLayerD2Ev
00011554 T _ZN12TSnap7Client10AsCompressEi
00011430 T _ZN12TSnap7Client10AsDownloadEiPvi
00010d38 T _ZN12TSnap7Client10AsReadAreaEiiiiiPv
00010998 T _ZN12TSnap7Client10OpenThreadEv
00010f00 T _ZN12TSnap7Client11AsWriteAreaEiiiiiPv
000107b0 T _ZN12TSnap7Client11CloseThreadEv
00011384 T _ZN12TSnap7Client12AsFullUploadEiiPvRi
00010a54 T _ZN12TSnap7Client12DoCompletionEv
00011250 T _ZN12TSnap7Client13AsReadSZLListEP10TS7SZLListRi
00010b94 T _ZN12TSnap7Client13SetAsCallbackEPFvPviiES0_
00010c10 T _ZN12TSnap7Client13StartAsyncJobEv
000114d4 T _ZN12TSnap7Client14AsCopyRamToRomEi
000116f0 T _ZN12TSnap7Client16WaitAsCompletionEm
00010bbc T _ZN12TSnap7Client17CheckAsCompletionERi
00011120 T _ZN12TSnap7Client18AsListBlocksOfTypeEiPA8192_tRi
000109f8 T _ZN12TSnap7Client5ResetEb
000115d4 T _ZN12TSnap7Client7AsDBGetEiPvRi
00010e78 T _ZN12TSnap7Client8AsABReadEiiPv
00010ed4 T _ZN12TSnap7Client8AsCTReadEiiPv
0001167c T _ZN12TSnap7Client8AsDBFillEii
00010de0 T _ZN12TSnap7Client8AsDBReadEiiiPv
00010e48 T _ZN12TSnap7Client8AsEBReadEiiPv
00010e18 T _ZN12TSnap7Client8AsMBReadEiiPv
00010ea8 T _ZN12TSnap7Client8AsTMReadEiiPv
000112d8 T _ZN12TSnap7Client8AsUploadEiiPvRi
00010bb4 T _ZN12TSnap7Client8GetParamEiPv
00010bb8 T _ZN12TSnap7Client8SetParamEiPv
00011098 T _ZN12TSnap7Client9AsABWriteEiiPv
000110f4 T _ZN12TSnap7Client9AsCTWriteEiiPv
00011000 T _ZN12TSnap7Client9AsDBWriteEiiiPv
00011068 T _ZN12TSnap7Client9AsEBWriteEiiPv
00011038 T _ZN12TSnap7Client9AsMBWriteEiiPv
000111a4 T _ZN12TSnap7Client9AsReadSZLEiiP6TS7SZLRi
000110c8 T _ZN12TSnap7Client9AsTMWriteEiiPv
00010738 T _ZN12TSnap7ClientC1Ev
00010738 T _ZN12TSnap7ClientC2Ev
0001097c T _ZN12TSnap7ClientD0Ev
00010894 T _ZN12TSnap7ClientD1Ev
00010894 T _ZN12TSnap7ClientD2Ev
0001899c T _ZN12TSnap7Server10DisposeAllEv
00018efc T _ZN12TSnap7Server10DoReadAreaEiiiiiiPv
00018788 T _ZN12TSnap7Server10RegisterDBEtPvt
00018d34 T _ZN12TSnap7Server10UnlockAreaEit
00018df4 T _ZN12TSnap7Server11DoReadEventEijttttt
0001967c T _ZN12TSnap7Server11DoWriteAreaEiiiiiiPv
0001884c T _ZN12TSnap7Server11RegisterSysEiPvt
00018c84 T _ZN12TSnap7Server12RegisterAreaEitPvt
000188d8 T _ZN12TSnap7Server12UnregisterDBEt
0001894c T _ZN12TSnap7Server13UnregisterSysEi
00018cac T _ZN12TSnap7Server14UnregisterAreaEit
0001875c T _ZN12TSnap7Server15FindFirstFreeDBEv
00018db8 T _ZN12TSnap7Server17SetRWAreaCallBackEPFiPviiP6TS7TagS0_ES0_
00014ee4 T _ZN12TSnap7Server18CreateWorkerSocketEi
00018d98 T _ZN12TSnap7Server21SetReadEventsCallBackEPFvPvP9TSrvEventiES0_
0001836c T _ZN12TSnap7Server6FindDBEt
00018aa8 T _ZN12TSnap7Server7StartToEPKc
00018ab8 T _ZN12TSnap7Server8GetParamEiPv
00018cd0 T _ZN12TSnap7Server8LockAreaEit
00018b70 T _ZN12TSnap7Server8SetParamEiPv
00018710 T _ZN12TSnap7Server9IndexOfDBEt
00018270 T _ZN12TSnap7ServerC1Ev
00018270 T _ZN12TSnap7ServerC2Ev
00018a8c T _ZN12TSnap7ServerD0Ev
00018a20 T _ZN12TSnap7ServerD1Ev
00018a20 T _ZN12TSnap7ServerD2Ev
00010abc T _ZN13TClientThread7ExecuteEv
00011888 W _ZN13TClientThreadD0Ev
00011854 W _ZN13TClientThreadD1Ev
00011854 W _ZN13TClientThreadD2Ev
00010290 W _ZN13TEcoTcpWorker7ExecuteEv
0001035c W _ZN13TEcoTcpWorkerD0Ev
00010328 W _ZN13TEcoTcpWorkerD1Ev
00010328 W _ZN13TEcoTcpWorkerD2Ev
00011c34 T _ZN13TIsoTcpSocket10isoConnectEv
000120a8 T _ZN13TIsoTcpSocket10isoRecvPDUEP11TIsoDataPDU
00011f28 T _ZN13TIsoTcpSocket10isoSendPDUEP11TIsoDataPDU
000119d8 T _ZN13TIsoTcpSocket11ClrIsoErrorEv
00011e44 T _ZN13TIsoTcpSocket11IsoPDUReadyEv
000118c4 T _ZN13TIsoTcpSocket11IsoParsePDUE14TIsoControlPDU
000119bc T _ZN13TIsoTcpSocket11SetIsoErrorEi
00011e60 T _ZN13TIsoTcpSocket13isoDisconnectEb
000121bc T _ZN13TIsoTcpSocket13isoRecvBufferEPvRi
00011d8c T _ZN13TIsoTcpSocket13isoSendBufferEPvi
0001226c T _ZN13TIsoTcpSocket14isoExchangePDUEP11TIsoDataPDU
000119f0 T _ZN13TIsoTcpSocket15BuildControlPDUEv
000118d8 T _ZN13TIsoTcpSocket15FragmentSkippedEi
00011f90 T _ZN13TIsoTcpSocket15isoRecvFragmentEPviRiRb
0001222c T _ZN13TIsoTcpSocket17isoExchangeBufferEPvRi
00011bd4 T _ZN13TIsoTcpSocket20IsoConfirmConnectionEh
000122a0 T _ZN13TIsoTcpSocket7IsoPeekEPvR8TPDUKind
00011b4c T _ZN13TIsoTcpSocket7PDUSizeEPv
00011b5c T _ZN13TIsoTcpSocket8CheckPDUEPvh
0001192c T _ZN13TIsoTcpSocketC1Ev
0001192c T _ZN13TIsoTcpSocketC2Ev
00011910 T _ZN13TIsoTcpSocketD0Ev
000118dc T _ZN13TIsoTcpSocketD1Ev
000118dc T _ZN13TIsoTcpSocketD2Ev
00014ce8 T _ZN13TIsoTcpWorker11ExecuteRecvEv
00014cdc T _ZN13TIsoTcpWorker11ExecuteSendEv
00014cd4 T _ZN13TIsoTcpWorker17IsoPerformCommandERi
00014e38 T _ZN13TIsoTcpWorker7ExecuteEv
0001a00c W _ZN13TIsoTcpWorkerD0Ev
00019fa4 W _ZN13TIsoTcpWorkerD1Ev
00019fa4 W _ZN13TIsoTcpWorkerD2Ev
00012ec8 T _ZN13TSnap7Partner10DisconnectEv
000134f4 T _ZN13TSnap7Partner11CloseWorkerEv
00012d10 T _ZN13TSnap7Partner11GetNextByteEv
00013210 T _ZN13TSnap7Partner13ConnectToPeerEv
00014898 T _ZN13TSnap7Partner15SetRecvCallbackEPFvPvijS0_iES0_
00014618 T _ZN13TSnap7Partner15SetSendCallbackEPFvPviES0_
00013f0c T _ZN13TSnap7Partner17ConnectionConfirmEv
0001443c T _ZN13TSnap7Partner21WaitAsBSendCompletionEj
000147e0 T _ZN13TSnap7Partner22CheckAsBRecvCompletionERiRjPvS0_
000143f4 T _ZN13TSnap7Partner22CheckAsBSendCompletionERi
00013394 T _ZN13TSnap7Partner24PerformFunctionNegotiateEv
000135a8 T _ZN13TSnap7Partner4StopEv
00014638 T _ZN13TSnap7Partner5BRecvERjPvRij
000145ec T _ZN13TSnap7Partner5BSendEjPvi
00012d44 T _ZN13TSnap7Partner5StartEv
00014270 T _ZN13TSnap7Partner6StatusEv
0001431c T _ZN13TSnap7Partner7AsBSendEjPvi
00013f48 T _ZN13TSnap7Partner7ExecuteEv
00012e84 T _ZN13TSnap7Partner7StartToEPKcS1_tt
00012ee8 T _ZN13TSnap7Partner8GetParamEiPv
00013ab8 T _ZN13TSnap7Partner8PickDataEv
0001305c T _ZN13TSnap7Partner8SetParamEiPv
00013ce0 T _ZN13TSnap7Partner9BlockRecvEv
00013724 T _ZN13TSnap7Partner9BlockSendEv
000131e0 T _ZN13TSnap7Partner9ClearRecvEv
00012b00 T _ZN13TSnap7PartnerC1Eb
00012b00 T _ZN13TSnap7PartnerC2Eb
00013708 T _ZN13TSnap7PartnerD0Ev
0001364c T _ZN13TSnap7PartnerD1Ev
0001364c T _ZN13TSnap7PartnerD2Ev
0000f6d8 T _ZN14TMsgEventQueue4FullEv
0000f66c T _ZN14TMsgEventQueue5EmptyEv
0000f628 T _ZN14TMsgEventQueue5FlushEv
0000f714 T _ZN14TMsgEventQueue6InsertEPv
0000f684 T _ZN14TMsgEventQueue7ExtractEPv
0000f638 T _ZN14TMsgEventQueueC1Eii
0000f638 T _ZN14TMsgEventQueueC2Eii
0000f608 T _ZN14TMsgEventQueueD1Ev
0000f608 T _ZN14TMsgEventQueueD2Ev
00013250 T _ZN14TPartnerThread7ExecuteEv
00014920 W _ZN14TPartnerThreadD0Ev
000148b8 W _ZN14TPartnerThreadD1Ev
000148b8 W _ZN14TPartnerThreadD2Ev
00012658 T _ZN15TServersManager12CreateServerEjRP17TConnectionServer
00012924 T _ZN15TServersManager13RemovePartnerEP17TConnectionServerP13TSnap7Partner
00012354 T _ZN15TServersManager4LockEv
0001235c T _ZN15TServersManager6UnlockEv
00012364 T _ZN15TServersManager9AddServerEP17TConnectionServer
000126fc T _ZN15TServersManager9GetServerEjRP17TConnectionServer
00012314 T _ZN15TServersManagerC1Ev
00012314 T _ZN15TServersManagerC2Ev
000125d8 T _ZN15TServersManagerD1Ev
000125d8 T _ZN15TServersManagerD2Ev
00010264 T _ZN16TCustomMsgServer10EventEmptyEv
0000fa30 T _ZN16TCustomMsgServer10UnlockListEv
0001026c T _ZN16TCustomMsgServer11EventsFlushEv
0000fd58 T _ZN16TCustomMsgServer12TerminateAllEv
0000fbd0 T _ZN16TCustomMsgServer13StartListenerEv
00010234 T _ZN16TCustomMsgServer17SetEventsCallBackEPFvPvP9TSrvEventiES0_
0000f5a0 T _ZN16TCustomMsgServer18CreateWorkerSocketEi
00010094 T _ZN16TCustomMsgServer4StopEv
0000ff98 T _ZN16TCustomMsgServer5StartEv
0000fe04 T _ZN16TCustomMsgServer6DeleteEi
0000f758 T _ZN16TCustomMsgServer7DoEventEijttttt
0000fca8 T _ZN16TCustomMsgServer7KillAllEv
00010064 T _ZN16TCustomMsgServer7StartToEPKct
0000fa60 T _ZN16TCustomMsgServer8IncomingEi
0000fa28 T _ZN16TCustomMsgServer8LockListEv
0000f4d4 T _ZN16TCustomMsgServer9CanAcceptEi
0000fa38 T _ZN16TCustomMsgServer9FirstFreeEv
00010244 T _ZN16TCustomMsgServer9PickEventEPv
0000f908 T _ZN16TCustomMsgServerC1Ev
0000f908 T _ZN16TCustomMsgServerC2Ev
00010218 T _ZN16TCustomMsgServerD0Ev
00010180 T _ZN16TCustomMsgServerD1Ev
00010180 T _ZN16TCustomMsgServerD2Ev
0000fe40 T _ZN16TMsgWorkerThread7ExecuteEv
0000f868 T _ZN16TMsgWorkerThreadC1EP10TMsgSocketP16TCustomMsgServer
0000f868 T _ZN16TMsgWorkerThreadC2EP10TMsgSocketP16TCustomMsgServer
0001043c W _ZN16TMsgWorkerThreadD0Ev
00010408 W _ZN16TMsgWorkerThreadD1Ev
00010408 W _ZN16TMsgWorkerThreadD2Ev
0000eef8 T _ZN16TRawSocketPinger10InitPacketEv
0000eebc T _ZN16TRawSocketPinger14PacketChecksumEv
0000f06c T _ZN16TRawSocketPinger4PingEji
0000ef9c T _ZN16TRawSocketPinger7CanReadEi
0000ee54 T _ZN16TRawSocketPingerC1Ev
0000ee54 T _ZN16TRawSocketPingerC2Ev
0000ee94 T _ZN16TRawSocketPingerD1Ev
0000ee94 T _ZN16TRawSocketPingerD2Ev
000127dc T _ZN17TConnectionServer11FindPartnerEj
000128cc T _ZN17TConnectionServer13RemovePartnerEP13TSnap7Partner
00012854 T _ZN17TConnectionServer15RegisterPartnerEP13TSnap7Partner
000123f8 T _ZN17TConnectionServer4LockEv
00012528 T _ZN17TConnectionServer4StopEv
00012408 T _ZN17TConnectionServer5StartEv
00012400 T _ZN17TConnectionServer6UnlockEv
00012508 T _ZN17TConnectionServer7StartToEPKc
000129f8 T _ZN17TConnectionServer8IncomingEi
0001282c T _ZN17TConnectionServer9FirstFreeEv
000123b4 T _ZN17TConnectionServerC1Ev
000123b4 T _ZN17TConnectionServerC2Ev
000125a8 T _ZN17TConnectionServerD1Ev
000125a8 T _ZN17TConnectionServerD2Ev
00021270 T _ZN17TSnap7MicroClient10CheckBlockEiiPvi
00021f00 T _ZN17TSnap7MicroClient10DisconnectEv
00022b60 T _ZN17TSnap7MicroClient10FullUploadEiiPvRi
00022f9c T _ZN17TSnap7MicroClient10GetCpuInfoEP10TS7CpuInfo
000226c0 T _ZN17TSnap7MicroClient10ListBlocksEP13TS7BlocksList
0001dc68 T _ZN17TSnap7MicroClient10opCompressEv
0002133c T _ZN17TSnap7MicroClient10opDownloadEv
000201bc T _ZN17TSnap7MicroClient10opReadAreaEv
0002319c T _ZN17TSnap7MicroClient11PlcHotStartEv
00023118 T _ZN17TSnap7MicroClient11ReadSZLListEP10TS7SZLListRi
00021140 T _ZN17TSnap7MicroClient11opGetCpInfoEv
000205d4 T _ZN17TSnap7MicroClient11opWriteAreaEv
000232b0 T _ZN17TSnap7MicroClient12CopyRamToRomEi
00020190 T _ZN17TSnap7MicroClient12DataSizeByteEi
00022f34 T _ZN17TSnap7MicroClient12GetOrderCodeEP12TS7OrderCode
000233a8 T _ZN17TSnap7MicroClient12GetPlcStatusERi
000231f8 T _ZN17TSnap7MicroClient12PlcColdStartEv
0001f830 T _ZN17TSnap7MicroClient12opGetCpuInfoEv
0001e340 T _ZN17TSnap7MicroClient12opListBlocksEv
00023410 T _ZN17TSnap7MicroClient13GetProtectionEP13TS7Protection
00022398 T _ZN17TSnap7MicroClient13ReadMultiVarsEP11TS7DataItemi
0001e6ac T _ZN17TSnap7MicroClient13opAgBlockInfoEv
0001fad0 T _ZN17TSnap7MicroClient13opGetDateTimeEv
0001d844 T _ZN17TSnap7MicroClient13opPlcHotStartEv
0001f66c T _ZN17TSnap7MicroClient13opReadSZLListEv
0001fc88 T _ZN17TSnap7MicroClient13opSetDateTimeEv
0001fe78 T _ZN17TSnap7MicroClient13opSetPasswordEv
00022728 T _ZN17TSnap7MicroClient14GetAgBlockInfoEiiP12TS7BlockInfo
000227a4 T _ZN17TSnap7MicroClient14GetPgBlockInfoEPvP12TS7BlockInfoi
00022e30 T _ZN17TSnap7MicroClient14GetPlcDateTimeER2tm
00022e98 T _ZN17TSnap7MicroClient14SetPlcDateTimeEP2tm
0002240c T _ZN17TSnap7MicroClient14WriteMultiVarsEP11TS7DataItemi
0001daec T _ZN17TSnap7MicroClient14opCopyRamToRomEv
0001f768 T _ZN17TSnap7MicroClient14opGetOrderCodeEv
0001f8f8 T _ZN17TSnap7MicroClient14opGetPlcStatusEv
0001d980 T _ZN17TSnap7MicroClient14opPlcColdStartEv
00021310 T _ZN17TSnap7MicroClient15SubBlockToBlockEi
00020064 T _ZN17TSnap7MicroClient15opClearPasswordEv
0001f990 T _ZN17TSnap7MicroClient15opGetProtectionEv
0001deb8 T _ZN17TSnap7MicroClient15opReadMultiVarsEv
000229f8 T _ZN17TSnap7MicroClient16ListBlocksOfTypeEiPA8192_tRi
00021be4 T _ZN17TSnap7MicroClient16PerformOperationEv
00020b38 T _ZN17TSnap7MicroClient16opWriteMultiVarsEv
00021fcc T _ZN17TSnap7MicroClient17SetConnectionTypeEt
00023478 T _ZN17TSnap7MicroClient18SetSessionPasswordEPc
0001d09c T _ZN17TSnap7MicroClient18opListBlocksOfTypeEv
00021fdc T _ZN17TSnap7MicroClient19SetConnectionParamsEPKctt
00023528 T _ZN17TSnap7MicroClient20ClearSessionPasswordEv
00022f00 T _ZN17TSnap7MicroClient20SetPlcSystemDateTimeEv
00022d1c T _ZN17TSnap7MicroClient5DBGetEiPvRi
00021f94 T _ZN17TSnap7MicroClient5ResetEb
000225b0 T _ZN17TSnap7MicroClient6ABReadEiiPv
00022668 T _ZN17TSnap7MicroClient6CTReadEiiPv
00022dc0 T _ZN17TSnap7MicroClient6DBFillEii
00022480 T _ZN17TSnap7MicroClient6DBReadEiiiPv
00022cac T _ZN17TSnap7MicroClient6DeleteEii
00022550 T _ZN17TSnap7MicroClient6EBReadEiiPv
000224f0 T _ZN17TSnap7MicroClient6MBReadEiiPv
00022610 T _ZN17TSnap7MicroClient6TMReadEiiPv
00022aa0 T _ZN17TSnap7MicroClient6UploadEiiPvRi
000225e0 T _ZN17TSnap7MicroClient7ABWriteEiiPv
00022694 T _ZN17TSnap7MicroClient7CTWriteEiiPv
00021f50 T _ZN17TSnap7MicroClient7ConnectEv
000224b8 T _ZN17TSnap7MicroClient7DBWriteEiiiPv
00021134 T _ZN17TSnap7MicroClient7DWordAtEPv
00022580 T _ZN17TSnap7MicroClient7EBWriteEiiPv
00022520 T _ZN17TSnap7MicroClient7MBWriteEiiPv
00023254 T _ZN17TSnap7MicroClient7PlcStopEv
0002306c T _ZN17TSnap7MicroClient7ReadSZLEiiP6TS7SZLRi
0002263c T _ZN17TSnap7MicroClient7TMWriteEiiPv
00020504 T _ZN17TSnap7MicroClient7opDBGetEv
0002332c T _ZN17TSnap7MicroClient8CompressEi
0001ddb4 T _ZN17TSnap7MicroClient8CpuErrorEi
00022c20 T _ZN17TSnap7MicroClient8DownloadEiPvi
0001d448 T _ZN17TSnap7MicroClient8FillTimeEtPc
00022040 T _ZN17TSnap7MicroClient8GetParamEiPv
00022248 T _ZN17TSnap7MicroClient8ReadAreaEiiiiiPv
0002214c T _ZN17TSnap7MicroClient8SetParamEiPv
00020a80 T _ZN17TSnap7MicroClient8opDBFillEv
0001d4a4 T _ZN17TSnap7MicroClient8opDeleteEv
0001eb28 T _ZN17TSnap7MicroClient8opUploadEv
0001d6e0 T _ZN17TSnap7MicroClient9BCDtoByteEh
00022004 T _ZN17TSnap7MicroClient9ConnectToEPKcii
00023004 T _ZN17TSnap7MicroClient9GetCpInfoEP9TS7CpInfo
0001d6f8 T _ZN17TSnap7MicroClient9WordToBCDEt
000222ec T _ZN17TSnap7MicroClient9WriteAreaEiiiiiPv
0001d71c T _ZN17TSnap7MicroClient9opPlcStopEv
0001f1a0 T _ZN17TSnap7MicroClient9opReadSZLEv
0001d010 T _ZN17TSnap7MicroClientC1Ev
0001d010 T _ZN17TSnap7MicroClientC2Ev
0001cff4 T _ZN17TSnap7MicroClientD0Ev
0001cfb0 T _ZN17TSnap7MicroClientD1Ev
0001cfb0 T _ZN17TSnap7MicroClientD2Ev
0000f50c T _ZN18TMsgListenerThread7ExecuteEv
0000f8b8 T _ZN18TMsgListenerThreadC1EP10TMsgSocketP16TCustomMsgServer
0000f8b8 T _ZN18TMsgListenerThreadC2EP10TMsgSocketP16TCustomMsgServer
000103cc W _ZN18TMsgListenerThreadD0Ev
00010398 W _ZN18TMsgListenerThreadD1Ev
00010398 W _ZN18TMsgListenerThreadD2Ev
00012a74 T _ZN19TConnListenerThread7ExecuteEv
0001495c W _ZN19TConnListenerThreadD0Ev
000148ec W _ZN19TConnListenerThreadD1Ev
000148ec W _ZN19TConnListenerThreadD2Ev
0000f390 T _ZN7TPinger4PingEPci
0000f328 T _ZN7TPinger4PingEji
0000f2c8 T _ZN7TPinger7RawPingEji
0000f188 T _ZN7TPingerC1Ev
0000f188 T _ZN7TPingerC2Ev
0000f258 T _ZN7TPingerD1Ev
0000f258 T _ZN7TPingerD2Ev
0001572c T _ZN9TS7Worker11BLK_ListAllER3TCB
000159a8 T _ZN9TS7Worker11BLK_ListBoTEhbR3TCB
00014f2c T _ZN9TS7Worker11CheckPDU_inEi
00018eac T _ZN9TS7Worker11DoReadEventEjttttt
00014e1c T _ZN9TS7Worker11ExecuteRecvEv
0001511c T _ZN9TS7Worker11RA_NotFoundEP15TResFunReadItemR3TEv
000151f4 T _ZN9TS7Worker11WA_NotFoundER3TEv
000150f4 T _ZN9TS7Worker12DataSizeByteEi
000150ec T _ZN9TS7Worker13PerformPDUAckERi
00015160 T _ZN9TS7Worker13RA_OutOfRangeEP15TResFunReadItemR3TEv
00015214 T _ZN9TS7Worker13WA_OutOfRangeER3TEv
00018480 T _ZN9TS7Worker14BLK_GetBlkInfoER3TCB
000151a4 T _ZN9TS7Worker14RA_SizeOverPDUEP15TResFunReadItemR3TEv
000160b0 T _ZN9TS7Worker14SZLSystemStateEv
00014ce4 T _ZN9TS7Worker15FragmentSkippedEi
0001801c T _ZN9TS7Worker15PerformGetClockEv
00016360 T _ZN9TS7Worker15PerformGroupSZLEv
0001815c T _ZN9TS7Worker15PerformSetClockEv
00016020 T _ZN9TS7Worker15SZLNotAvailableEv
000162a8 T _ZN9TS7Worker16SZL_ID131_IDX003Ev
00019ef8 T _ZN9TS7Worker17IsoPerformCommandERi
00019e20 T _ZN9TS7Worker17PerformPDURequestERi
0001863c T _ZN9TS7Worker17PerformPDUUsrDataERi
00019410 T _ZN9TS7Worker19PerformFunctionReadEv
00015224 T _ZN9TS7Worker19WA_DataSizeMismatchER3TEv
00019aa4 T _ZN9TS7Worker20PerformFunctionWriteEv
00017ec8 T _ZN9TS7Worker20PerformGroupSecurityEv
00015554 T _ZN9TS7Worker21PerformFunctionUploadEv
00018568 T _ZN9TS7Worker21PerformGroupBlockInfoEv
00015930 T _ZN9TS7Worker22BLK_NoResource_ListBoTEP14TDataFunGetBotR3TCB
000153c0 T _ZN9TS7Worker22PerformFunctionControlEh
000156f8 T _ZN9TS7Worker22PerformGroupCyclicDataEv
000156c4 T _ZN9TS7Worker22PerformGroupProgrammerEv
0001560c T _ZN9TS7Worker23PerformFunctionDownloadEv
00015204 T _ZN9TS7Worker23WA_InvalidTransportSizeER3TEv
00015234 T _ZN9TS7Worker24PerformFunctionNegotiateEv
00015d1c T _ZN9TS7Worker25BLK_NoResource_GetBlkInfoEP17TResDataBlockInfoR3TCB
00015dec T _ZN9TS7Worker26BLK_DoBlockInfo_GetBlkInfoEP7TS7AreaP17TResDataBlockInfoR3TCB
00015d88 T _ZN9TS7Worker26BLK_GetBlockNum_GetBlkInfoERiP17TReqDataBlockInfo
00014fb0 T _ZN9TS7Worker3BCDEt
00015094 T _ZN9TS7Worker7DoEventEjttttt
000183c0 T _ZN9TS7Worker7GetAreaEht
0001613c T _ZN9TS7Worker7SZLDataEPvi
00014fd4 T _ZN9TS7Worker8FillTimeEP7TS7Time
00018fc0 T _ZN9TS7Worker8ReadAreaEP15TResFunReadItemP15TReqFunReadItemRiR3TEv
000161f4 T _ZN9TS7Worker9SZL_ID424Ev
00019740 T _ZN9TS7Worker9WriteAreaEP20TReqFunWriteDataItemP16TReqFunWriteItemR3TEv
00014e68 T _ZN9TS7WorkerC1Ev
00014e68 T _ZN9TS7WorkerC2Ev
0001a048 W _ZN9TS7WorkerD0Ev
00019fd8 W _ZN9TS7WorkerD1Ev
00019fd8 W _ZN9TS7WorkerD2Ev
0000e164 T _ZN9TSnapBase8SwapWordEt
0000e184 T _ZN9TSnapBase9SwapDWordEj
0000e158 T _ZN9TSnapBaseC1Ev
0000e158 T _ZN9TSnapBaseC2Ev
0002f020 D _ZTI10TMsgSocket
0002f208 D _ZTI10TSnap7Peer
0002f0f0 D _ZTI11TSnapThread
0002f11c D _ZTI12TSnap7Client
0002f250 D _ZTI12TSnap7Server
0002f110 D _ZTI13TClientThread
0002f050 V _ZTI13TEcoTcpWorker
0002f160 D _ZTI13TIsoTcpSocket
0002f238 D _ZTI13TIsoTcpWorker
0002f1a8 D _ZTI13TSnap7Partner
0002f19c D _ZTI14TPartnerThread
0002f090 D _ZTI16TCustomMsgServer
0002f078 D _ZTI16TMsgWorkerThread
0002f2e8 D _ZTI17TSnap7MicroClient
0002f084 D _ZTI18TMsgListenerThread
0002f190 D _ZTI19TConnListenerThread
0002f244 D _ZTI9TS7Worker
0002f018 V _ZTI9TSnapBase
000242c4 R _ZTS10TMsgSocket
000243b4 R _ZTS10TSnap7Peer
00024338 R _ZTS11TSnapThread
00024358 R _ZTS12TSnap7Client
00024474 R _ZTS12TSnap7Server
00024348 R _ZTS13TClientThread
000242e8 V _ZTS13TEcoTcpWorker
00024368 R _ZTS13TIsoTcpSocket
00024458 R _ZTS13TIsoTcpWorker
000243a4 R _ZTS13TSnap7Partner
00024390 R _ZTS14TPartnerThread
00024324 R _ZTS16TCustomMsgServer
000242f8 R _ZTS16TMsgWorkerThread
00025ca0 R _ZTS17TSnap7MicroClient
0002430c R _ZTS18TMsgListenerThread
00024378 R _ZTS19TConnListenerThread
00024468 R _ZTS9TS7Worker
000242b8 V _ZTS9TSnapBase
0002f038 D _ZTV10TMsgSocket
0002f218 D _ZTV10TSnap7Peer
0002f0f8 D _ZTV11TSnapThread
0002f140 D _ZTV12TSnap7Client
0002f2c0 D _ZTV12TSnap7Server
0002f128 D _ZTV13TClientThread
0002f060 V _ZTV13TEcoTcpWorker
0002f170 D _ZTV13TIsoTcpSocket
0002f260 D _ZTV13TIsoTcpWorker
0002f1e8 D _ZTV13TSnap7Partner
0002f1d0 D _ZTV14TPartnerThread
0002f0c8 D _ZTV16TCustomMsgServer
0002f098 D _ZTV16TMsgWorkerThread
0002f2f8 D _ZTV17TSnap7MicroClient
0002f0b0 D _ZTV18TMsgListenerThread
0002f1b8 D _ZTV19TConnListenerThread
0002f290 D _ZTV9TS7Worker
         U _ZTVN10__cxxabiv117__class_type_infoE
         U _ZTVN10__cxxabiv120__si_class_type_infoE
         U _ZTVN10__cxxabiv121__vmi_class_type_infoE
         U _ZdaPv
         U _ZdlPv
         U _Znaj
         U _Znwj
         U __aeabi_atexit
         U __aeabi_idiv
         U __aeabi_uidiv
         U __aeabi_uldivmod
         U __aeabi_unwind_cpp_pr0
         U __aeabi_unwind_cpp_pr1
00032f9c B __bss_end__
00032f89 B __bss_start
00032f89 B __bss_start__
         U __cxa_begin_catch
         U __cxa_end_catch
         U __cxa_end_cleanup
         w __cxa_finalize
00032f9c B __end__
         U __errno_location
         w __gmon_start__
         U __gxx_personality_v0
00032f9c B _bss_end__
00032f89 D _edata
00032f9c B _end
000242b0 T _fini
0000ca54 T _init
         U accept
         U bind
         U clock_gettime
         U close
         U connect
         U fcntl
         U getpeername
         U getsockname
         U getsockopt
         U gettimeofday
         U inet_addr
         U inet_ntoa
         U ioctl
         U listen
         U localtime
         U memcpy
         U memset
         U nanosleep
         U pthread_attr_init
         U pthread_attr_setdetachstate
         U pthread_cancel
         U pthread_cond_broadcast
         U pthread_cond_destroy
         U pthread_cond_init
         U pthread_cond_signal
         U pthread_cond_timedwait
         U pthread_cond_wait
         U pthread_create
         U pthread_exit
         U pthread_join
         U pthread_mutex_destroy
         U pthread_mutex_init
         U pthread_mutex_lock
         U pthread_mutex_unlock
         U pthread_setcancelstate
         U pthread_setcanceltype
         U recv
         U select
         U send
         U setsockopt
         U shutdown
         U socket
         U stpcpy
         U strcat
         U strcpy
         U strftime
         U strlen
         U strncpy
         U time
